target datalayout = "e-m:e-p270:32:32-p271:32:32-p272:64:64-i64:64-i128:128-f80:128-n8:16:32:64-S128"
target triple = "x86_64-pc-linux-gnu"

%struct.Hacl_Hash_SHA3_hash_buf_s = type { i8, ptr }
%struct.Hacl_Hash_SHA3_state_t_s = type { %struct.Hacl_Hash_SHA3_hash_buf_s, ptr, i64 }

; Function Attrs: nounwind uwtable
define hidden zeroext i8 @python_hashlib_Hacl_Hash_SHA3_get_alg(ptr noundef %0) #0 {
  %2 = alloca ptr, align 8
  %3 = alloca %struct.Hacl_Hash_SHA3_hash_buf_s, align 8
  store ptr %0, ptr %2, align 8, !tbaa !28
  call void @llvm.lifetime.start.p0(i64 16, ptr %3) #10
  %4 = load ptr, ptr %2, align 8, !tbaa !28
  %5 = getelementptr inbounds nuw %struct.Hacl_Hash_SHA3_state_t_s, ptr %4, i32 0, i32 0
  call void @llvm.memcpy.p0.p0.i64(ptr align 8 %3, ptr align 8 %5, i64 16, i1 false), !tbaa.struct !30
  %6 = getelementptr inbounds nuw %struct.Hacl_Hash_SHA3_hash_buf_s, ptr %3, i32 0, i32 0
  %7 = load i8, ptr %6, align 8, !tbaa !31
  call void @llvm.lifetime.end.p0(i64 16, ptr %3) #10
  ret i8 %7
}

; Function Attrs: nounwind uwtable
define hidden zeroext i8 @python_hashlib_Hacl_Hash_SHA3_squeeze(ptr noundef %0, ptr noundef %1, i32 noundef %2) #0 {
  %4 = alloca i8, align 1
  %5 = alloca ptr, align 8
  %6 = alloca ptr, align 8
  %7 = alloca i32, align 4
  %8 = alloca i8, align 1
  %9 = alloca i32, align 4
  store ptr %0, ptr %5, align 8, !tbaa !28
  store ptr %1, ptr %6, align 8, !tbaa !9
  store i32 %2, ptr %7, align 4, !tbaa !11
  call void @llvm.lifetime.start.p0(i64 1, ptr %8) #10
  %10 = load ptr, ptr %5, align 8, !tbaa !28
  %11 = call zeroext i8 @python_hashlib_Hacl_Hash_SHA3_get_alg(ptr noundef %10)
  store i8 %11, ptr %8, align 1, !tbaa !3
  %12 = load i8, ptr %8, align 1, !tbaa !3
  %13 = zext i8 %12 to i32
  %14 = icmp eq i32 %13, 12
  br i1 %14, label %20, label %15

15:                                               ; preds = %3
  %16 = load i8, ptr %8, align 1, !tbaa !3
  %17 = zext i8 %16 to i32
  %18 = icmp eq i32 %17, 13
  br i1 %18, label %20, label %19

19:                                               ; preds = %15
  store i8 1, ptr %4, align 1
  store i32 1, ptr %9, align 4
  br label %29

20:                                               ; preds = %15, %3
  %21 = load i32, ptr %7, align 4, !tbaa !11
  %22 = icmp eq i32 %21, 0
  br i1 %22, label %23, label %24

23:                                               ; preds = %20
  store i8 2, ptr %4, align 1
  store i32 1, ptr %9, align 4
  br label %29

24:                                               ; preds = %20
  %25 = load i8, ptr %8, align 1, !tbaa !3
  %26 = load ptr, ptr %5, align 8, !tbaa !28
  %27 = load ptr, ptr %6, align 8, !tbaa !9
  %28 = load i32, ptr %7, align 4, !tbaa !11
  call void @digest_(i8 noundef zeroext %25, ptr noundef %26, ptr noundef %27, i32 noundef %28)
  store i8 0, ptr %4, align 1
  store i32 1, ptr %9, align 4
  br label %29

29:                                               ; preds = %24, %23, %19
  call void @llvm.lifetime.end.p0(i64 1, ptr %8) #10
  %30 = load i8, ptr %4, align 1
  ret i8 %30
}