; Function Attrs: nofree nounwind uwtable
define hidden zeroext range(i8 0, 3) i8 @python_hashlib_Hacl_Hash_SHA3_squeeze(ptr noundef readonly captures(none) %0, ptr noundef writeonly captures(none) %1, i32 noundef %2) local_unnamed_addr #0 {
  %.sroa.0.0.copyload.i = load i8, ptr %0, align 8, !tbaa !18
  %4 = and i8 %.sroa.0.0.copyload.i, -2
  %or.cond = icmp eq i8 %4, 12
  br i1 %or.cond, label %5, label %8

5:                                                ; preds = %3
  %6 = icmp eq i32 %2, 0
  br i1 %6, label %8, label %7

7:                                                ; preds = %5
  tail call fastcc void @digest_(i8 noundef zeroext %.sroa.0.0.copyload.i, ptr noundef nonnull %0, ptr noundef %1, i32 noundef %2)
  br label %8

8:                                                ; preds = %5, %3, %7
  %.0 = phi i8 [ 0, %7 ], [ 1, %3 ], [ 2, %5 ]
  ret i8 %.0
}